; Function Attrs: mustprogress nofree norecurse nosync nounwind willreturn memory(read, inaccessiblemem: none) uwtable
define hidden noundef ptr @_ZNK10MemBarNode5ValueEP8PhaseGVN(ptr nocapture noundef nonnull readonly align 8 dereferenceable(68) %0, ptr nocapture noundef readonly %1) unnamed_addr #2 align 2 {
  %3 = getelementptr inbounds i8, ptr %0, i64 8
  %4 = load ptr, ptr %3, align 8
  %5 = load ptr, ptr %4, align 8
  %.not = icmp eq ptr %5, null
  br i1 %.not, label %6, label %8

6:                                                ; preds = %2
  %7 = load ptr, ptr @_ZN4Type3TOPE, align 8
  br label %21

8:                                                ; preds = %2
  %9 = getelementptr inbounds i8, ptr %1, i64 40
  %10 = load ptr, ptr %9, align 8
  %11 = getelementptr inbounds i8, ptr %5, i64 40
  %12 = load i32, ptr %11, align 8
  %13 = getelementptr inbounds i8, ptr %10, i64 16
  %14 = load ptr, ptr %13, align 8
  %15 = zext i32 %12 to i64
  %16 = getelementptr inbounds ptr, ptr %14, i64 %15
  %17 = load ptr, ptr %16, align 8
  %18 = load ptr, ptr @_ZN4Type3TOPE, align 8
  %19 = icmp eq ptr %17, %18
  %20 = load ptr, ptr @_ZN9TypeTuple6MEMBARE, align 8
  %spec.select = select i1 %19, ptr %18, ptr %20
  br label %21

21:                                               ; preds = %8, %6
  %.0 = phi ptr [ %7, %6 ], [ %spec.select, %8 ]
  ret ptr %.0
}